target datalayout = "e-m:e-p270:32:32-p271:32:32-p272:64:64-i64:64-i128:128-f80:128-n8:16:32:64-S128"
target triple = "x86_64-unknown-linux-gnu"

%"class.EA::UnitTest::TestCollection" = type { ptr, %"class.eastl::vector" }
%"class.eastl::vector" = type { %"struct.eastl::VectorBase" }
%"struct.eastl::VectorBase" = type { ptr, ptr, %"class.eastl::compressed_pair.0" }
%"class.eastl::compressed_pair.0" = type { %"class.eastl::compressed_pair_imp.1" }
%"class.eastl::compressed_pair_imp.1" = type { ptr }
%"class.EA::UnitTest::Test" = type { ptr, %"class.eastl::basic_string", ptr, i64, i64, ptr, i8, i64 }
%"class.eastl::basic_string" = type { %"class.eastl::compressed_pair" }
%"class.eastl::compressed_pair" = type { %"class.eastl::compressed_pair_imp" }
%"class.eastl::compressed_pair_imp" = type { %"struct.eastl::basic_string<char>::Layout" }
%"struct.eastl::basic_string<char>::Layout" = type { %union.anon }
%union.anon = type { %"struct.eastl::basic_string<char>::HeapLayout" }
%"struct.eastl::basic_string<char>::HeapLayout" = type { ptr, i64, i64 }
%"struct.EA::UnitTest::TestCollection::TestInfo" = type { ptr, i8 }
%"class.EA::UnitTest::TestSuite" = type { %"class.EA::UnitTest::Test", %"class.EA::UnitTest::TestCollection", i32, %"class.eastl::vector.2" }
%"class.eastl::vector.2" = type { %"struct.eastl::VectorBase.3" }
%"struct.eastl::VectorBase.3" = type { ptr, ptr, %"class.eastl::compressed_pair.4" }
%"class.eastl::compressed_pair.4" = type { %"class.eastl::compressed_pair_imp.5" }
%"class.eastl::compressed_pair_imp.5" = type { ptr }
%"struct.EA::UnitTest::TestSuite::ResultInfo" = type { ptr, i32 }

@.str.22 = private unnamed_addr constant [36 x i8] c"Error: Unable to recognize test %s\0A\00", align 1

; Function Attrs: mustprogress nounwind uwtable
define linkonce_odr dso_local noundef ptr @_ZN5eastl6vectorIN2EA8UnitTest9TestSuite10ResultInfoENS_9allocatorEE3endEv(ptr noundef nonnull align 8 dereferenceable(24) %this) #1 comdat align 2 {
entry:
  %this.addr = alloca ptr, align 8
  store ptr %this, ptr %this.addr, align 8
  %this1 = load ptr, ptr %this.addr, align 8
  %mpEnd = getelementptr inbounds %"struct.eastl::VectorBase.3", ptr %this1, i32 0, i32 1
  %0 = load ptr, ptr %mpEnd, align 8
  ret ptr %0
}

; Function Attrs: mustprogress nounwind uwtable
define linkonce_odr dso_local noundef ptr @_ZN5eastl6vectorIN2EA8UnitTest9TestSuite10ResultInfoENS_9allocatorEE5beginEv(ptr noundef nonnull align 8 dereferenceable(24) %this) #1 comdat align 2 {
entry:
  %this.addr = alloca ptr, align 8
  store ptr %this, ptr %this.addr, align 8
  %this1 = load ptr, ptr %this.addr, align 8
  %mpBegin = getelementptr inbounds %"struct.eastl::VectorBase.3", ptr %this1, i32 0, i32 0
  %0 = load ptr, ptr %mpBegin, align 8
  ret ptr %0
}

; Function Attrs: mustprogress uwtable
define dso_local noundef i32 @_ZN2EA8UnitTest9TestSuite7RunTestEPKc(ptr noundef nonnull align 8 dereferenceable(144) %this, ptr noundef %pName) unnamed_addr #2 align 2 {
entry:
  %retval = alloca i32, align 4
  %this.addr = alloca ptr, align 8
  %pName.addr = alloca ptr, align 8
  %pTestInfo = alloca ptr, align 8
  %pResultInfo = alloca ptr, align 8
  %it = alloca ptr, align 8
  %resultInfo = alloca ptr, align 8
  store ptr %this, ptr %this.addr, align 8
  store ptr %pName, ptr %pName.addr, align 8
  %this1 = load ptr, ptr %this.addr, align 8
  %add.ptr = getelementptr inbounds i8, ptr %this1, i64 80
  %0 = load ptr, ptr %pName.addr, align 8
  %call = call noundef ptr @_ZN2EA8UnitTest14TestCollection12FindTestInfoEPKcb(ptr noundef nonnull align 8 dereferenceable(32) %add.ptr, ptr noundef %0, i1 noundef zeroext true)
  store ptr %call, ptr %pTestInfo, align 8
  %1 = load ptr, ptr %pTestInfo, align 8
  %tobool = icmp ne ptr %1, null
  br i1 %tobool, label %if.end, label %if.then

if.then:                                          ; preds = %entry
  %2 = load ptr, ptr %pName.addr, align 8
  call void (ptr, ...) @_ZN2EA6EAMain6ReportEPKcz(ptr noundef @.str.22, ptr noundef %2)
  store i32 1, ptr %retval, align 4
  br label %return

if.end:                                           ; preds = %entry
  store ptr null, ptr %pResultInfo, align 8
  %mResults = getelementptr inbounds %"class.EA::UnitTest::TestSuite", ptr %this1, i32 0, i32 3
  %call2 = call noundef ptr @_ZN5eastl6vectorIN2EA8UnitTest9TestSuite10ResultInfoENS_9allocatorEE5beginEv(ptr noundef nonnull align 8 dereferenceable(24) %mResults) #13
  store ptr %call2, ptr %it, align 8
  br label %for.cond

for.cond:                                         ; preds = %for.inc, %if.end
  %3 = load ptr, ptr %it, align 8
  %mResults3 = getelementptr inbounds %"class.EA::UnitTest::TestSuite", ptr %this1, i32 0, i32 3
  %call4 = call noundef ptr @_ZN5eastl6vectorIN2EA8UnitTest9TestSuite10ResultInfoENS_9allocatorEE3endEv(ptr noundef nonnull align 8 dereferenceable(24) %mResults3) #13
  %cmp = icmp ne ptr %3, %call4
  br i1 %cmp, label %for.body, label %for.end

for.body:                                         ; preds = %for.cond
  %4 = load ptr, ptr %it, align 8
  store ptr %4, ptr %resultInfo, align 8
  %5 = load ptr, ptr %resultInfo, align 8
  %mpTest = getelementptr inbounds %"struct.EA::UnitTest::TestSuite::ResultInfo", ptr %5, i32 0, i32 0
  %6 = load ptr, ptr %mpTest, align 8
  %7 = load ptr, ptr %pTestInfo, align 8
  %mpTest5 = getelementptr inbounds %"struct.EA::UnitTest::TestCollection::TestInfo", ptr %7, i32 0, i32 0
  %8 = load ptr, ptr %mpTest5, align 8
  %cmp6 = icmp eq ptr %6, %8
  br i1 %cmp6, label %if.then7, label %if.end8

if.then7:                                         ; preds = %for.body
  %9 = load ptr, ptr %resultInfo, align 8
  store ptr %9, ptr %pResultInfo, align 8
  br label %for.end

if.end8:                                          ; preds = %for.body
  br label %for.inc

for.inc:                                          ; preds = %if.end8
  %10 = load ptr, ptr %it, align 8
  %incdec.ptr = getelementptr inbounds %"struct.EA::UnitTest::TestSuite::ResultInfo", ptr %10, i32 1
  store ptr %incdec.ptr, ptr %it, align 8
  br label %for.cond, !llvm.loop !16

for.end:                                          ; preds = %if.then7, %for.cond
  %11 = load ptr, ptr %pResultInfo, align 8
  %tobool9 = icmp ne ptr %11, null
  br i1 %tobool9, label %if.then10, label %if.end11

if.then10:                                        ; preds = %for.end
  %12 = load ptr, ptr %pResultInfo, align 8
  call void @_ZN2EA8UnitTest9TestSuite3RunERNS1_10ResultInfoE(ptr noundef nonnull align 8 dereferenceable(144) %this1, ptr noundef nonnull align 8 dereferenceable(16) %12)
  %13 = load ptr, ptr %pResultInfo, align 8
  %mnResult = getelementptr inbounds %"struct.EA::UnitTest::TestSuite::ResultInfo", ptr %13, i32 0, i32 1
  %14 = load i32, ptr %mnResult, align 8
  store i32 %14, ptr %retval, align 4
  br label %return

if.end11:                                         ; preds = %for.end
  store i32 1, ptr %retval, align 4
  br label %return

return:                                           ; preds = %if.end11, %if.then10, %if.then
  %15 = load i32, ptr %retval, align 4
  ret i32 %15
}