; Function Attrs: mustprogress uwtable
define dso_local noundef i32 @_ZN2EA8UnitTest9TestSuite7RunTestEPKc(ptr noundef nonnull align 8 dereferenceable(144) %this, ptr noundef %pName) unnamed_addr #0 align 2 {
entry:
  %add.ptr = getelementptr inbounds i8, ptr %this, i64 80
  %call = tail call noundef ptr @_ZN2EA8UnitTest14TestCollection12FindTestInfoEPKcb(ptr noundef nonnull align 8 dereferenceable(32) %add.ptr, ptr noundef %pName, i1 noundef zeroext true)
  %tobool.not = icmp eq ptr %call, null
  br i1 %tobool.not, label %if.then, label %if.end

if.then:                                          ; preds = %entry
  tail call void (ptr, ...) @_ZN2EA6EAMain6ReportEPKcz(ptr noundef nonnull @.str.22, ptr noundef %pName)
  br label %return

if.end:                                           ; preds = %entry
  %mResults = getelementptr inbounds i8, ptr %this, i64 120
  %0 = load ptr, ptr %mResults, align 8
  %mpEnd.i = getelementptr inbounds i8, ptr %this, i64 128
  %1 = load ptr, ptr %mpEnd.i, align 8
  %cmp.not11 = icmp eq ptr %0, %1
  br i1 %cmp.not11, label %return, label %for.body.lr.ph

for.body.lr.ph:                                   ; preds = %if.end
  %2 = load ptr, ptr %call, align 8
  br label %for.body

for.body:                                         ; preds = %for.body.lr.ph, %for.inc
  %it.012 = phi ptr [ %0, %for.body.lr.ph ], [ %incdec.ptr, %for.inc ]
  %3 = load ptr, ptr %it.012, align 8
  %cmp6 = icmp eq ptr %3, %2
  br i1 %cmp6, label %if.then10, label %for.inc

for.inc:                                          ; preds = %for.body
  %incdec.ptr = getelementptr inbounds i8, ptr %it.012, i64 16
  %cmp.not = icmp eq ptr %incdec.ptr, %1
  br i1 %cmp.not, label %return, label %for.body, !llvm.loop !19

if.then10:                                        ; preds = %for.body
  tail call void @_ZN2EA8UnitTest9TestSuite3RunERNS1_10ResultInfoE(ptr noundef nonnull align 8 dereferenceable(144) %this, ptr noundef nonnull align 8 dereferenceable(16) %it.012)
  %mnResult = getelementptr inbounds i8, ptr %it.012, i64 8
  %4 = load i32, ptr %mnResult, align 8
  br label %return

return:                                           ; preds = %for.inc, %if.end, %if.then10, %if.then
  %retval.0 = phi i32 [ %4, %if.then10 ], [ 1, %if.then ], [ 1, %if.end ], [ 1, %for.inc ]
  ret i32 %retval.0
}